target datalayout = "e-m:e-p270:32:32-p271:32:32-p272:64:64-i64:64-i128:128-f80:128-n8:16:32:64-S128"
target triple = "x86_64-pc-linux-gnu"

%struct.engine_st = type { ptr, ptr, ptr, ptr, ptr, ptr, ptr, ptr, ptr, ptr, ptr, ptr, ptr, ptr, ptr, ptr, ptr, ptr, ptr, i32, %struct.CRYPTO_REF_COUNT, i32, %struct.crypto_ex_data_st, ptr, ptr, ptr, ptr, ptr }
%struct.CRYPTO_REF_COUNT = type { i32 }
%struct.crypto_ex_data_st = type { ptr, ptr }

@global_engine_lock = external global ptr, align 8
@engine_dyn_list_head = internal global ptr null, align 8
@engine_dyn_list_tail = internal global ptr null, align 8

; Function Attrs: nounwind uwtable
define i32 @engine_add_dynamic_id(ptr noundef %0, ptr noundef %1, i32 noundef %2) #0 {
  %4 = alloca i32, align 4
  %5 = alloca ptr, align 8
  %6 = alloca ptr, align 8
  %7 = alloca i32, align 4
  %8 = alloca i32, align 4
  %9 = alloca ptr, align 8
  %10 = alloca i32, align 4
  store ptr %0, ptr %5, align 8, !tbaa !3
  store ptr %1, ptr %6, align 8, !tbaa !8
  store i32 %2, ptr %7, align 4, !tbaa !9
  call void @llvm.lifetime.start.p0(i64 4, ptr %8) #5
  store i32 0, ptr %8, align 4, !tbaa !9
  call void @llvm.lifetime.start.p0(i64 8, ptr %9) #5
  store ptr null, ptr %9, align 8, !tbaa !3
  %11 = load ptr, ptr %5, align 8, !tbaa !3
  %12 = icmp eq ptr %11, null
  br i1 %12, label %13, label %14

13:                                               ; preds = %3
  store i32 0, ptr %4, align 4
  store i32 1, ptr %10, align 4
  br label %99

14:                                               ; preds = %3
  %15 = load ptr, ptr %5, align 8, !tbaa !3
  %16 = getelementptr inbounds nuw %struct.engine_st, ptr %15, i32 0, i32 27
  %17 = load ptr, ptr %16, align 8, !tbaa !11
  %18 = icmp eq ptr %17, null
  br i1 %18, label %19, label %23

19:                                               ; preds = %14
  %20 = load ptr, ptr %6, align 8, !tbaa !8
  %21 = icmp eq ptr %20, null
  br i1 %21, label %22, label %23

22:                                               ; preds = %19
  store i32 0, ptr %4, align 4
  store i32 1, ptr %10, align 4
  br label %99

23:                                               ; preds = %19, %14
  %24 = load i32, ptr %7, align 4, !tbaa !9
  %25 = icmp ne i32 %24, 0
  br i1 %25, label %26, label %31

26:                                               ; preds = %23
  %27 = load ptr, ptr @global_engine_lock, align 8, !tbaa !8
  %28 = call i32 @CRYPTO_THREAD_write_lock(ptr noundef %27)
  %29 = icmp ne i32 %28, 0
  br i1 %29, label %31, label %30

30:                                               ; preds = %26
  store i32 0, ptr %4, align 4
  store i32 1, ptr %10, align 4
  br label %99

31:                                               ; preds = %26, %23
  %32 = load ptr, ptr %6, align 8, !tbaa !8
  %33 = icmp ne ptr %32, null
  br i1 %33, label %34, label %60

34:                                               ; preds = %31
  %35 = load ptr, ptr @engine_dyn_list_head, align 8, !tbaa !3
  store ptr %35, ptr %9, align 8, !tbaa !3
  br label %36

36:                                               ; preds = %46, %34
  %37 = load ptr, ptr %9, align 8, !tbaa !3
  %38 = icmp ne ptr %37, null
  br i1 %38, label %39, label %50

39:                                               ; preds = %36
  %40 = load ptr, ptr %9, align 8, !tbaa !3
  %41 = getelementptr inbounds nuw %struct.engine_st, ptr %40, i32 0, i32 27
  %42 = load ptr, ptr %41, align 8, !tbaa !11
  %43 = load ptr, ptr %6, align 8, !tbaa !8
  %44 = icmp eq ptr %42, %43
  br i1 %44, label %45, label %46

45:                                               ; preds = %39
  br label %91

46:                                               ; preds = %39
  %47 = load ptr, ptr %9, align 8, !tbaa !3
  %48 = getelementptr inbounds nuw %struct.engine_st, ptr %47, i32 0, i32 24
  %49 = load ptr, ptr %48, align 8, !tbaa !24
  store ptr %49, ptr %9, align 8, !tbaa !3
  br label %36, !llvm.loop !25

50:                                               ; preds = %36
  %51 = load ptr, ptr %5, align 8, !tbaa !3
  %52 = getelementptr inbounds nuw %struct.engine_st, ptr %51, i32 0, i32 27
  %53 = load ptr, ptr %52, align 8, !tbaa !11
  %54 = icmp ne ptr %53, null
  br i1 %54, label %55, label %56

55:                                               ; preds = %50
  br label %91

56:                                               ; preds = %50
  %57 = load ptr, ptr %6, align 8, !tbaa !8
  %58 = load ptr, ptr %5, align 8, !tbaa !3
  %59 = getelementptr inbounds nuw %struct.engine_st, ptr %58, i32 0, i32 27
  store ptr %57, ptr %59, align 8, !tbaa !11
  br label %60

60:                                               ; preds = %56, %31
  %61 = load ptr, ptr @engine_dyn_list_head, align 8, !tbaa !3
  %62 = icmp eq ptr %61, null
  br i1 %62, label %63, label %71

63:                                               ; preds = %60
  %64 = load ptr, ptr @engine_dyn_list_tail, align 8, !tbaa !3
  %65 = icmp ne ptr %64, null
  br i1 %65, label %66, label %67

66:                                               ; preds = %63
  br label %91

67:                                               ; preds = %63
  %68 = load ptr, ptr %5, align 8, !tbaa !3
  store ptr %68, ptr @engine_dyn_list_head, align 8, !tbaa !3
  %69 = load ptr, ptr %5, align 8, !tbaa !3
  %70 = getelementptr inbounds nuw %struct.engine_st, ptr %69, i32 0, i32 25
  store ptr null, ptr %70, align 8, !tbaa !27
  br label %87

71:                                               ; preds = %60
  %72 = load ptr, ptr @engine_dyn_list_tail, align 8, !tbaa !3
  %73 = icmp eq ptr %72, null
  br i1 %73, label %79, label %74

74:                                               ; preds = %71
  %75 = load ptr, ptr @engine_dyn_list_tail, align 8, !tbaa !3
  %76 = getelementptr inbounds nuw %struct.engine_st, ptr %75, i32 0, i32 26
  %77 = load ptr, ptr %76, align 8, !tbaa !28
  %78 = icmp ne ptr %77, null
  br i1 %78, label %79, label %80

79:                                               ; preds = %74, %71
  br label %91

80:                                               ; preds = %74
  %81 = load ptr, ptr %5, align 8, !tbaa !3
  %82 = load ptr, ptr @engine_dyn_list_tail, align 8, !tbaa !3
  %83 = getelementptr inbounds nuw %struct.engine_st, ptr %82, i32 0, i32 26
  store ptr %81, ptr %83, align 8, !tbaa !28
  %84 = load ptr, ptr @engine_dyn_list_tail, align 8, !tbaa !3
  %85 = load ptr, ptr %5, align 8, !tbaa !3
  %86 = getelementptr inbounds nuw %struct.engine_st, ptr %85, i32 0, i32 25
  store ptr %84, ptr %86, align 8, !tbaa !27
  br label %87

87:                                               ; preds = %80, %67
  %88 = load ptr, ptr %5, align 8, !tbaa !3
  store ptr %88, ptr @engine_dyn_list_tail, align 8, !tbaa !3
  %89 = load ptr, ptr %5, align 8, !tbaa !3
  %90 = getelementptr inbounds nuw %struct.engine_st, ptr %89, i32 0, i32 26
  store ptr null, ptr %90, align 8, !tbaa !28
  store i32 1, ptr %8, align 4, !tbaa !9
  br label %91

91:                                               ; preds = %87, %79, %66, %55, %45
  %92 = load i32, ptr %7, align 4, !tbaa !9
  %93 = icmp ne i32 %92, 0
  br i1 %93, label %94, label %97

94:                                               ; preds = %91
  %95 = load ptr, ptr @global_engine_lock, align 8, !tbaa !8
  %96 = call i32 @CRYPTO_THREAD_unlock(ptr noundef %95)
  br label %97

97:                                               ; preds = %94, %91
  %98 = load i32, ptr %8, align 4, !tbaa !9
  store i32 %98, ptr %4, align 4
  store i32 1, ptr %10, align 4
  br label %99

99:                                               ; preds = %97, %30, %22, %13
  call void @llvm.lifetime.end.p0(i64 8, ptr %9) #5
  call void @llvm.lifetime.end.p0(i64 4, ptr %8) #5
  %100 = load i32, ptr %4, align 4
  ret i32 %100
}