; Function Attrs: nounwind uwtable
define range(i32 0, 2) i32 @engine_add_dynamic_id(ptr noundef %0, ptr noundef %1, i32 noundef %2) local_unnamed_addr #0 {
  %4 = icmp eq ptr %0, null
  br i1 %4, label %38, label %5

5:                                                ; preds = %3
  %6 = getelementptr inbounds nuw i8, ptr %0, i64 216
  %7 = load ptr, ptr %6, align 8, !tbaa !3
  %8 = icmp eq ptr %7, null
  %9 = icmp eq ptr %1, null
  %or.cond = and i1 %9, %8
  br i1 %or.cond, label %38, label %10

10:                                               ; preds = %5
  %.not = icmp eq i32 %2, 0
  br i1 %.not, label %14, label %11

11:                                               ; preds = %10
  %12 = load ptr, ptr @global_engine_lock, align 8, !tbaa !21
  %13 = tail call i32 @CRYPTO_THREAD_write_lock(ptr noundef %12) #4
  %.not26 = icmp eq i32 %13, 0
  br i1 %.not26, label %38, label %14

14:                                               ; preds = %11, %10
  %.pre = load ptr, ptr @engine_dyn_list_head, align 8, !tbaa !22
  br i1 %9, label %22, label %.preheader

.preheader:                                       ; preds = %14
  %.not2833 = icmp eq ptr %.pre, null
  br i1 %.not2833, label %._crit_edge, label %.lr.ph

15:                                               ; preds = %.lr.ph
  %16 = getelementptr inbounds nuw i8, ptr %.034, i64 192
  %.0 = load ptr, ptr %16, align 8, !tbaa !22
  %.not28 = icmp eq ptr %.0, null
  br i1 %.not28, label %._crit_edge, label %.lr.ph, !llvm.loop !23

.lr.ph:                                           ; preds = %.preheader, %15
  %.034 = phi ptr [ %.0, %15 ], [ %.pre, %.preheader ]
  %17 = getelementptr inbounds nuw i8, ptr %.034, i64 216
  %18 = load ptr, ptr %17, align 8, !tbaa !3
  %19 = icmp eq ptr %18, %1
  br i1 %19, label %.loopexit, label %15

._crit_edge:                                      ; preds = %15, %.preheader
  %20 = load ptr, ptr %6, align 8, !tbaa !3
  %.not29 = icmp eq ptr %20, null
  br i1 %.not29, label %21, label %.loopexit

21:                                               ; preds = %._crit_edge
  store ptr %1, ptr %6, align 8, !tbaa !3
  br label %22

22:                                               ; preds = %21, %14
  %23 = icmp eq ptr %.pre, null
  %24 = load ptr, ptr @engine_dyn_list_tail, align 8, !tbaa !22
  %.not31 = icmp eq ptr %24, null
  br i1 %23, label %25, label %27

25:                                               ; preds = %22
  br i1 %.not31, label %26, label %.loopexit

26:                                               ; preds = %25
  store ptr %0, ptr @engine_dyn_list_head, align 8, !tbaa !22
  br label %32

27:                                               ; preds = %22
  br i1 %.not31, label %.loopexit, label %28

28:                                               ; preds = %27
  %29 = getelementptr inbounds nuw i8, ptr %24, i64 208
  %30 = load ptr, ptr %29, align 8, !tbaa !25
  %.not30 = icmp eq ptr %30, null
  br i1 %.not30, label %31, label %.loopexit

31:                                               ; preds = %28
  store ptr %0, ptr %29, align 8, !tbaa !25
  br label %32

32:                                               ; preds = %31, %26
  %.sink = phi ptr [ %24, %31 ], [ null, %26 ]
  %33 = getelementptr inbounds nuw i8, ptr %0, i64 200
  store ptr %.sink, ptr %33, align 8, !tbaa !26
  store ptr %0, ptr @engine_dyn_list_tail, align 8, !tbaa !22
  %34 = getelementptr inbounds nuw i8, ptr %0, i64 208
  store ptr null, ptr %34, align 8, !tbaa !25
  br label %.loopexit

.loopexit:                                        ; preds = %.lr.ph, %27, %28, %25, %._crit_edge, %32
  %.021 = phi i32 [ 0, %._crit_edge ], [ 0, %25 ], [ 1, %32 ], [ 0, %27 ], [ 0, %28 ], [ 0, %.lr.ph ]
  br i1 %.not, label %38, label %35

35:                                               ; preds = %.loopexit
  %36 = load ptr, ptr @global_engine_lock, align 8, !tbaa !21
  %37 = tail call i32 @CRYPTO_THREAD_unlock(ptr noundef %36) #4
  br label %38

38:                                               ; preds = %.loopexit, %35, %11, %5, %3
  %.022 = phi i32 [ 0, %3 ], [ 0, %5 ], [ 0, %11 ], [ %.021, %35 ], [ %.021, %.loopexit ]
  ret i32 %.022
}